target datalayout = "e-m:e-p270:32:32-p271:32:32-p272:64:64-i64:64-i128:128-f80:128-n8:16:32:64-S128"
target triple = "x86_64-pc-linux-gnu"

%"struct.ODDLParser::Reference" = type { i64, ptr }

; Function Attrs: mustprogress uwtable
define hidden void @_ZN10ODDLParser9ReferenceC2EmPPNS_4NameE(ptr noundef nonnull align 8 dereferenceable(16) %0, i64 noundef %1, ptr noundef %2) unnamed_addr #0 align 2 {
  %4 = alloca ptr, align 8
  %5 = alloca i64, align 8
  %6 = alloca ptr, align 8
  %7 = alloca i64, align 8
  store ptr %0, ptr %4, align 8
  store i64 %1, ptr %5, align 8
  store ptr %2, ptr %6, align 8
  %8 = load ptr, ptr %4, align 8
  %9 = getelementptr inbounds nuw %"struct.ODDLParser::Reference", ptr %8, i32 0, i32 0
  %10 = load i64, ptr %5, align 8
  store i64 %10, ptr %9, align 8
  %11 = getelementptr inbounds nuw %"struct.ODDLParser::Reference", ptr %8, i32 0, i32 1
  store ptr null, ptr %11, align 8
  %12 = load i64, ptr %5, align 8
  %13 = icmp ugt i64 %12, 0
  br i1 %13, label %14, label %40

14:                                               ; preds = %3
  %15 = load i64, ptr %5, align 8
  %16 = call { i64, i1 } @llvm.umul.with.overflow.i64(i64 %15, i64 8)
  %17 = extractvalue { i64, i1 } %16, 1
  %18 = extractvalue { i64, i1 } %16, 0
  %19 = select i1 %17, i64 -1, i64 %18
  %20 = call noalias noundef nonnull ptr @_Znam(i64 noundef %19) #9
  %21 = getelementptr inbounds nuw %"struct.ODDLParser::Reference", ptr %8, i32 0, i32 1
  store ptr %20, ptr %21, align 8
  call void @llvm.lifetime.start.p0(i64 8, ptr %7) #10
  store i64 0, ptr %7, align 8
  br label %22

22:                                               ; preds = %36, %14
  %23 = load i64, ptr %7, align 8
  %24 = load i64, ptr %5, align 8
  %25 = icmp ult i64 %23, %24
  br i1 %25, label %27, label %26

26:                                               ; preds = %22
  call void @llvm.lifetime.end.p0(i64 8, ptr %7) #10
  br label %39

27:                                               ; preds = %22
  %28 = load ptr, ptr %6, align 8
  %29 = load i64, ptr %7, align 8
  %30 = getelementptr inbounds nuw ptr, ptr %28, i64 %29
  %31 = load ptr, ptr %30, align 8
  %32 = getelementptr inbounds nuw %"struct.ODDLParser::Reference", ptr %8, i32 0, i32 1
  %33 = load ptr, ptr %32, align 8
  %34 = load i64, ptr %7, align 8
  %35 = getelementptr inbounds nuw ptr, ptr %33, i64 %34
  store ptr %31, ptr %35, align 8
  br label %36

36:                                               ; preds = %27
  %37 = load i64, ptr %7, align 8
  %38 = add i64 %37, 1
  store i64 %38, ptr %7, align 8
  br label %22, !llvm.loop !3

39:                                               ; preds = %26
  br label %40

40:                                               ; preds = %39, %3
  ret void
}