; Function Attrs: mustprogress uwtable
define hidden void @_ZN10ODDLParser9ReferenceC2EmPPNS_4NameE(ptr noundef nonnull align 8 captures(none) dereferenceable(16) initializes((0, 16)) %0, i64 noundef %1, ptr noundef readonly captures(none) %2) unnamed_addr #0 align 2 {
  store i64 %1, ptr %0, align 8
  %4 = getelementptr inbounds nuw i8, ptr %0, i64 8
  store ptr null, ptr %4, align 8
  %.not = icmp eq i64 %1, 0
  br i1 %.not, label %.loopexit, label %5

5:                                                ; preds = %3
  %6 = icmp ugt i64 %1, 2305843009213693951
  %7 = shl nuw i64 %1, 3
  %8 = select i1 %6, i64 -1, i64 %7
  %9 = tail call noalias noundef nonnull ptr @_Znam(i64 noundef %8) #11
  store ptr %9, ptr %4, align 8
  br label %10

10:                                               ; preds = %5, %10
  %.010 = phi i64 [ 0, %5 ], [ %15, %10 ]
  %11 = getelementptr inbounds nuw ptr, ptr %2, i64 %.010
  %12 = load ptr, ptr %11, align 8
  %13 = load ptr, ptr %4, align 8
  %14 = getelementptr inbounds nuw ptr, ptr %13, i64 %.010
  store ptr %12, ptr %14, align 8
  %15 = add nuw i64 %.010, 1
  %exitcond.not = icmp eq i64 %15, %1
  br i1 %exitcond.not, label %.loopexit, label %10, !llvm.loop !3

.loopexit:                                        ; preds = %10, %3
  ret void
}